target datalayout = "e-m:e-p270:32:32-p271:32:32-p272:64:64-i64:64-i128:128-f80:128-n8:16:32:64-S128"
target triple = "x86_64-pc-linux-gnu"

%struct.DdManager = type { %struct.DdNode, ptr, ptr, ptr, ptr, ptr, ptr, ptr, i32, i32, double, double, double, i32, i32, i32, i32, i32, i32, ptr, ptr, %struct.DdSubtable, i32, i32, i32, i32, i32, i32, i32, double, i32, i32, i32, ptr, i64, double, i32, ptr, ptr, ptr, ptr, ptr, ptr, ptr, i32, ptr, ptr, ptr, ptr, ptr, ptr, i32, i32, i32, double, i32, i32, i32, i32, double, double, i32, i32, i32, i32, i32, i32, i32, i32, i32, ptr, ptr, i32, i32, i32, i32, i32, i32, ptr, ptr, ptr, ptr, ptr, ptr, ptr, ptr, i32, i64, i64, i64, i32, i64, i64, double, double, double, double, double, double, i32, ptr, ptr, i64 }
%struct.DdNode = type { i32, i32, ptr, %union.anon, i64 }
%union.anon = type { %struct.DdChildren }
%struct.DdChildren = type { ptr, ptr }
%struct.DdSubtable = type { ptr, i32, i32, i32, i32, i32, i32, i32, i32, i32, i32, i32 }

; Function Attrs: nounwind uwtable
define ptr @Extra_bddComputeSum(ptr noundef %0, ptr noundef %1, i32 noundef %2) #0 {
  %4 = alloca ptr, align 8
  %5 = alloca ptr, align 8
  %6 = alloca i32, align 4
  %7 = alloca ptr, align 8
  %8 = alloca ptr, align 8
  %9 = alloca i32, align 4
  store ptr %0, ptr %4, align 8, !tbaa !10
  store ptr %1, ptr %5, align 8, !tbaa !73
  store i32 %2, ptr %6, align 4, !tbaa !8
  call void @llvm.lifetime.start.p0(i64 8, ptr %7) #8
  call void @llvm.lifetime.start.p0(i64 8, ptr %8) #8
  call void @llvm.lifetime.start.p0(i64 4, ptr %9) #8
  %10 = load ptr, ptr %4, align 8, !tbaa !10
  %11 = getelementptr inbounds nuw %struct.DdManager, ptr %10, i32 0, i32 1
  %12 = load ptr, ptr %11, align 8, !tbaa !74
  %13 = ptrtoint ptr %12 to i64
  %14 = xor i64 %13, 1
  %15 = inttoptr i64 %14 to ptr
  store ptr %15, ptr %7, align 8, !tbaa !72
  %16 = load ptr, ptr %7, align 8, !tbaa !72
  call void @Cudd_Ref(ptr noundef %16)
  store i32 0, ptr %9, align 4, !tbaa !8
  br label %17

17:                                               ; preds = %33, %3
  %18 = load i32, ptr %9, align 4, !tbaa !8
  %19 = load i32, ptr %6, align 4, !tbaa !8
  %20 = icmp slt i32 %18, %19
  br i1 %20, label %21, label %36

21:                                               ; preds = %17
  %22 = load ptr, ptr %4, align 8, !tbaa !10
  %23 = load ptr, ptr %7, align 8, !tbaa !72
  store ptr %23, ptr %8, align 8, !tbaa !72
  %24 = load ptr, ptr %5, align 8, !tbaa !73
  %25 = load i32, ptr %9, align 4, !tbaa !8
  %26 = sext i32 %25 to i64
  %27 = getelementptr inbounds ptr, ptr %24, i64 %26
  %28 = load ptr, ptr %27, align 8, !tbaa !72
  %29 = call ptr @Cudd_bddOr(ptr noundef %22, ptr noundef %23, ptr noundef %28)
  store ptr %29, ptr %7, align 8, !tbaa !72
  %30 = load ptr, ptr %7, align 8, !tbaa !72
  call void @Cudd_Ref(ptr noundef %30)
  %31 = load ptr, ptr %4, align 8, !tbaa !10
  %32 = load ptr, ptr %8, align 8, !tbaa !72
  call void @Cudd_RecursiveDeref(ptr noundef %31, ptr noundef %32)
  br label %33

33:                                               ; preds = %21
  %34 = load i32, ptr %9, align 4, !tbaa !8
  %35 = add nsw i32 %34, 1
  store i32 %35, ptr %9, align 4, !tbaa !8
  br label %17, !llvm.loop !75

36:                                               ; preds = %17
  %37 = load ptr, ptr %7, align 8, !tbaa !72
  call void @Cudd_Deref(ptr noundef %37)
  %38 = load ptr, ptr %7, align 8, !tbaa !72
  call void @llvm.lifetime.end.p0(i64 4, ptr %9) #8
  call void @llvm.lifetime.end.p0(i64 8, ptr %8) #8
  call void @llvm.lifetime.end.p0(i64 8, ptr %7) #8
  ret ptr %38
}