; Function Attrs: nounwind uwtable
define noundef ptr @Extra_bddComputeSum(ptr noundef %0, ptr noundef readonly captures(none) %1, i32 noundef %2) local_unnamed_addr #0 {
  %4 = getelementptr inbounds nuw i8, ptr %0, i64 40
  %5 = load ptr, ptr %4, align 8, !tbaa !77
  %6 = ptrtoint ptr %5 to i64
  %7 = xor i64 %6, 1
  %8 = inttoptr i64 %7 to ptr
  tail call void @Cudd_Ref(ptr noundef %8) #10
  %9 = icmp sgt i32 %2, 0
  br i1 %9, label %.lr.ph.preheader, label %._crit_edge

.lr.ph.preheader:                                 ; preds = %3
  %wide.trip.count = zext nneg i32 %2 to i64
  br label %.lr.ph

.lr.ph:                                           ; preds = %.lr.ph.preheader, %.lr.ph
  %indvars.iv = phi i64 [ 0, %.lr.ph.preheader ], [ %indvars.iv.next, %.lr.ph ]
  %.01314 = phi ptr [ %8, %.lr.ph.preheader ], [ %12, %.lr.ph ]
  %10 = getelementptr inbounds nuw ptr, ptr %1, i64 %indvars.iv
  %11 = load ptr, ptr %10, align 8, !tbaa !73
  %12 = tail call ptr @Cudd_bddOr(ptr noundef %0, ptr noundef %.01314, ptr noundef %11) #10
  tail call void @Cudd_Ref(ptr noundef %12) #10
  tail call void @Cudd_RecursiveDeref(ptr noundef %0, ptr noundef %.01314) #10
  %indvars.iv.next = add nuw nsw i64 %indvars.iv, 1
  %exitcond.not = icmp eq i64 %indvars.iv.next, %wide.trip.count
  br i1 %exitcond.not, label %._crit_edge, label %.lr.ph, !llvm.loop !78

._crit_edge:                                      ; preds = %.lr.ph, %3
  %.013.lcssa = phi ptr [ %8, %3 ], [ %12, %.lr.ph ]
  tail call void @Cudd_Deref(ptr noundef %.013.lcssa) #10
  ret ptr %.013.lcssa
}